target datalayout = "e-m:e-p270:32:32-p271:32:32-p272:64:64-i64:64-i128:128-f80:128-n8:16:32:64-S128"
target triple = "x86_64-pc-linux-gnu"

%struct._zend_executor_globals = type { %struct._zval_struct, %struct._zval_struct, [32 x ptr], ptr, ptr, %struct._zend_array, %struct._zend_array, ptr, i32, i32, ptr, ptr, ptr, ptr, ptr, ptr, i64, ptr, ptr, i32, i32, i64, i32, i32, i32, i8, i8, %struct.zend_atomic_bool_s, %struct.zend_atomic_bool_s, ptr, i64, ptr, ptr, %struct._zend_array, %struct._zend_array, i32, i8, %struct._zval_struct, %struct._zval_struct, %struct._zend_stack, %struct._zend_stack, %struct._zend_stack, ptr, i32, i32, i64, ptr, ptr, ptr, %struct._zend_objects_store, ptr, ptr, ptr, [3 x %struct._zend_op], ptr, i8, i8, i64, i32, i32, ptr, [16 x %struct._HashTableIterator], ptr, %union._zend_function, %struct._zend_op, %struct._zend_array, i64, %struct.zend_get_gc_buffer, ptr, ptr, ptr, i64, i8, i32, ptr, ptr, i64, %struct._zend_call_stack, i64, i64, [6 x ptr] }
%struct.zend_atomic_bool_s = type { i8 }
%struct._zval_struct = type { %union._zend_value, %union.anon, %union.anon.2 }
%union._zend_value = type { i64 }
%union.anon = type { i32 }
%union.anon.2 = type { i32 }
%struct._zend_stack = type { i32, i32, i32, ptr }
%struct._zend_objects_store = type { ptr, i32, i32, i32 }
%struct._HashTableIterator = type { ptr, i32, i32 }
%union._zend_function = type { %struct._zend_op_array }
%struct._zend_op_array = type { i8, [3 x i8], i32, ptr, ptr, ptr, i32, i32, ptr, ptr, ptr, ptr, i32, i32, i32, i32, ptr, ptr, ptr, ptr, ptr, i32, i32, ptr, ptr, ptr, i32, i32, i32, i32, ptr, ptr, [6 x ptr] }
%struct._zend_op = type { ptr, %union._znode_op, %union._znode_op, %union._znode_op, i32, i32, i8, i8, i8, i8 }
%union._znode_op = type { i32 }
%struct._zend_array = type { %struct._zend_refcounted_h, %union.anon.4, i32, %union.anon.6, i32, i32, i32, i32, i64, ptr }
%struct._zend_refcounted_h = type { i32, %union.anon.3 }
%union.anon.3 = type { i32 }
%union.anon.4 = type { i32 }
%union.anon.6 = type { ptr }
%struct.zend_get_gc_buffer = type { ptr, ptr, ptr }
%struct._zend_call_stack = type { ptr, i64 }
%struct._spl_ptr_heap = type { ptr, ptr, ptr, ptr, i32, i32, i64, i64 }

@executor_globals = external global %struct._zend_executor_globals, align 8

; Function Attrs: nounwind uwtable
define internal i32 @spl_ptr_heap_delete_top(ptr noundef %0, ptr noundef %1, ptr noundef %2) #0 {
  %4 = alloca ptr, align 8
  %5 = alloca ptr, align 8
  %6 = alloca ptr, align 8
  %7 = alloca ptr, align 8
  %8 = alloca ptr, align 8
  %9 = alloca ptr, align 8
  %10 = alloca ptr, align 8
  %11 = alloca ptr, align 8
  %12 = alloca ptr, align 8
  %13 = alloca ptr, align 8
  %14 = alloca i64, align 8
  %15 = alloca ptr, align 8
  %16 = alloca i64, align 8
  %17 = alloca ptr, align 8
  %18 = alloca i64, align 8
  %19 = alloca ptr, align 8
  %20 = alloca i64, align 8
  %21 = alloca ptr, align 8
  %22 = alloca i64, align 8
  %23 = alloca ptr, align 8
  %24 = alloca i64, align 8
  %25 = alloca ptr, align 8
  %26 = alloca i64, align 8
  %27 = alloca ptr, align 8
  %28 = alloca i64, align 8
  %29 = alloca ptr, align 8
  %30 = alloca i64, align 8
  %31 = alloca i32, align 4
  %32 = alloca ptr, align 8
  %33 = alloca ptr, align 8
  %34 = alloca ptr, align 8
  %35 = alloca i32, align 4
  %36 = alloca i32, align 4
  %37 = alloca i32, align 4
  %38 = alloca ptr, align 8
  %39 = alloca ptr, align 8
  store ptr %0, ptr %32, align 8
  store ptr %1, ptr %33, align 8
  store ptr %2, ptr %34, align 8
  %40 = load ptr, ptr %32, align 8
  %41 = getelementptr inbounds %struct._spl_ptr_heap, ptr %40, i32 0, i32 4
  %42 = load i32, ptr %41, align 8
  %43 = sub nsw i32 %42, 1
  %44 = sdiv i32 %43, 2
  store i32 %44, ptr %37, align 4
  %45 = load ptr, ptr %32, align 8
  %46 = getelementptr inbounds %struct._spl_ptr_heap, ptr %45, i32 0, i32 4
  %47 = load i32, ptr %46, align 8
  %48 = icmp eq i32 %47, 0
  br i1 %48, label %49, label %50

49:                                               ; preds = %3
  store i32 -1, ptr %31, align 4
  br label %259

50:                                               ; preds = %3
  %51 = load ptr, ptr %33, align 8
  %52 = icmp ne ptr %51, null
  br i1 %52, label %53, label %80

53:                                               ; preds = %50
  %54 = load ptr, ptr %32, align 8
  %55 = load ptr, ptr %33, align 8
  %56 = load ptr, ptr %32, align 8
  store ptr %56, ptr %13, align 8
  store i64 0, ptr %14, align 8
  %57 = load ptr, ptr %13, align 8
  %58 = load ptr, ptr %57, align 8
  %59 = load ptr, ptr %13, align 8
  %60 = getelementptr inbounds %struct._spl_ptr_heap, ptr %59, i32 0, i32 7
  %61 = load i64, ptr %60, align 8
  %62 = load i64, ptr %14, align 8
  %63 = mul i64 %61, %62
  %64 = getelementptr inbounds i8, ptr %58, i64 %63
  store ptr %54, ptr %4, align 8
  store ptr %55, ptr %5, align 8
  store ptr %64, ptr %6, align 8
  %65 = load ptr, ptr %4, align 8
  %66 = getelementptr inbounds %struct._spl_ptr_heap, ptr %65, i32 0, i32 7
  %67 = load i64, ptr %66, align 8
  %68 = icmp eq i64 %67, 32
  br i1 %68, label %69, label %72

69:                                               ; preds = %53
  %70 = load ptr, ptr %5, align 8
  %71 = load ptr, ptr %6, align 8
  call void @llvm.memcpy.p0.p0.i64(ptr align 1 %70, ptr align 1 %71, i64 32, i1 false)
  br label %79

72:                                               ; preds = %53
  %73 = load ptr, ptr %4, align 8
  %74 = getelementptr inbounds %struct._spl_ptr_heap, ptr %73, i32 0, i32 7
  %75 = load i64, ptr %74, align 8
  %76 = icmp eq i64 %75, 16
  call void @llvm.assume(i1 %76)
  %77 = load ptr, ptr %5, align 8
  %78 = load ptr, ptr %6, align 8
  call void @llvm.memcpy.p0.p0.i64(ptr align 1 %77, ptr align 1 %78, i64 16, i1 false)
  br label %79

79:                                               ; preds = %72, %69
  br label %93

80:                                               ; preds = %50
  %81 = load ptr, ptr %32, align 8
  %82 = getelementptr inbounds %struct._spl_ptr_heap, ptr %81, i32 0, i32 2
  %83 = load ptr, ptr %82, align 8
  %84 = load ptr, ptr %32, align 8
  store ptr %84, ptr %15, align 8
  store i64 0, ptr %16, align 8
  %85 = load ptr, ptr %15, align 8
  %86 = load ptr, ptr %85, align 8
  %87 = load ptr, ptr %15, align 8
  %88 = getelementptr inbounds %struct._spl_ptr_heap, ptr %87, i32 0, i32 7
  %89 = load i64, ptr %88, align 8
  %90 = load i64, ptr %16, align 8
  %91 = mul i64 %89, %90
  %92 = getelementptr inbounds i8, ptr %86, i64 %91
  call void %83(ptr noundef %92)
  br label %93

93:                                               ; preds = %80, %79
  %94 = load ptr, ptr %32, align 8
  %95 = load ptr, ptr %32, align 8
  %96 = getelementptr inbounds %struct._spl_ptr_heap, ptr %95, i32 0, i32 4
  %97 = load i32, ptr %96, align 8
  %98 = add nsw i32 %97, -1
  store i32 %98, ptr %96, align 8
  %99 = sext i32 %98 to i64
  store ptr %94, ptr %17, align 8
  store i64 %99, ptr %18, align 8
  %100 = load ptr, ptr %17, align 8
  %101 = load ptr, ptr %100, align 8
  %102 = load ptr, ptr %17, align 8
  %103 = getelementptr inbounds %struct._spl_ptr_heap, ptr %102, i32 0, i32 7
  %104 = load i64, ptr %103, align 8
  %105 = load i64, ptr %18, align 8
  %106 = mul i64 %104, %105
  %107 = getelementptr inbounds i8, ptr %101, i64 %106
  store ptr %107, ptr %38, align 8
  store i32 0, ptr %35, align 4
  br label %108

108:                                              ; preds = %214, %93
  %109 = load i32, ptr %35, align 4
  %110 = load i32, ptr %37, align 4
  %111 = icmp slt i32 %109, %110
  br i1 %111, label %112, label %216

112:                                              ; preds = %108
  %113 = load i32, ptr %35, align 4
  %114 = mul nsw i32 %113, 2
  %115 = add nsw i32 %114, 1
  store i32 %115, ptr %36, align 4
  %116 = load i32, ptr %36, align 4
  %117 = load ptr, ptr %32, align 8
  %118 = getelementptr inbounds %struct._spl_ptr_heap, ptr %117, i32 0, i32 4
  %119 = load i32, ptr %118, align 8
  %120 = icmp ne i32 %116, %119
  br i1 %120, label %121, label %154

121:                                              ; preds = %112
  %122 = load ptr, ptr %32, align 8
  %123 = getelementptr inbounds %struct._spl_ptr_heap, ptr %122, i32 0, i32 3
  %124 = load ptr, ptr %123, align 8
  %125 = load ptr, ptr %32, align 8
  %126 = load i32, ptr %36, align 4
  %127 = add nsw i32 %126, 1
  %128 = sext i32 %127 to i64
  store ptr %125, ptr %19, align 8
  store i64 %128, ptr %20, align 8
  %129 = load ptr, ptr %19, align 8
  %130 = load ptr, ptr %129, align 8
  %131 = load ptr, ptr %19, align 8
  %132 = getelementptr inbounds %struct._spl_ptr_heap, ptr %131, i32 0, i32 7
  %133 = load i64, ptr %132, align 8
  %134 = load i64, ptr %20, align 8
  %135 = mul i64 %133, %134
  %136 = getelementptr inbounds i8, ptr %130, i64 %135
  %137 = load ptr, ptr %32, align 8
  %138 = load i32, ptr %36, align 4
  %139 = sext i32 %138 to i64
  store ptr %137, ptr %21, align 8
  store i64 %139, ptr %22, align 8
  %140 = load ptr, ptr %21, align 8
  %141 = load ptr, ptr %140, align 8
  %142 = load ptr, ptr %21, align 8
  %143 = getelementptr inbounds %struct._spl_ptr_heap, ptr %142, i32 0, i32 7
  %144 = load i64, ptr %143, align 8
  %145 = load i64, ptr %22, align 8
  %146 = mul i64 %144, %145
  %147 = getelementptr inbounds i8, ptr %141, i64 %146
  %148 = load ptr, ptr %34, align 8
  %149 = call i32 %124(ptr noundef %136, ptr noundef %147, ptr noundef %148)
  %150 = icmp sgt i32 %149, 0
  br i1 %150, label %151, label %154

151:                                              ; preds = %121
  %152 = load i32, ptr %36, align 4
  %153 = add nsw i32 %152, 1
  store i32 %153, ptr %36, align 4
  br label %154

154:                                              ; preds = %151, %121, %112
  %155 = load ptr, ptr %32, align 8
  %156 = getelementptr inbounds %struct._spl_ptr_heap, ptr %155, i32 0, i32 3
  %157 = load ptr, ptr %156, align 8
  %158 = load ptr, ptr %38, align 8
  %159 = load ptr, ptr %32, align 8
  %160 = load i32, ptr %36, align 4
  %161 = sext i32 %160 to i64
  store ptr %159, ptr %23, align 8
  store i64 %161, ptr %24, align 8
  %162 = load ptr, ptr %23, align 8
  %163 = load ptr, ptr %162, align 8
  %164 = load ptr, ptr %23, align 8
  %165 = getelementptr inbounds %struct._spl_ptr_heap, ptr %164, i32 0, i32 7
  %166 = load i64, ptr %165, align 8
  %167 = load i64, ptr %24, align 8
  %168 = mul i64 %166, %167
  %169 = getelementptr inbounds i8, ptr %163, i64 %168
  %170 = load ptr, ptr %34, align 8
  %171 = call i32 %157(ptr noundef %158, ptr noundef %169, ptr noundef %170)
  %172 = icmp slt i32 %171, 0
  br i1 %172, label %173, label %212

173:                                              ; preds = %154
  %174 = load ptr, ptr %32, align 8
  %175 = load ptr, ptr %32, align 8
  %176 = load i32, ptr %35, align 4
  %177 = sext i32 %176 to i64
  store ptr %175, ptr %25, align 8
  store i64 %177, ptr %26, align 8
  %178 = load ptr, ptr %25, align 8
  %179 = load ptr, ptr %178, align 8
  %180 = load ptr, ptr %25, align 8
  %181 = getelementptr inbounds %struct._spl_ptr_heap, ptr %180, i32 0, i32 7
  %182 = load i64, ptr %181, align 8
  %183 = load i64, ptr %26, align 8
  %184 = mul i64 %182, %183
  %185 = getelementptr inbounds i8, ptr %179, i64 %184
  %186 = load ptr, ptr %32, align 8
  %187 = load i32, ptr %36, align 4
  %188 = sext i32 %187 to i64
  store ptr %186, ptr %27, align 8
  store i64 %188, ptr %28, align 8
  %189 = load ptr, ptr %27, align 8
  %190 = load ptr, ptr %189, align 8
  %191 = load ptr, ptr %27, align 8
  %192 = getelementptr inbounds %struct._spl_ptr_heap, ptr %191, i32 0, i32 7
  %193 = load i64, ptr %192, align 8
  %194 = load i64, ptr %28, align 8
  %195 = mul i64 %193, %194
  %196 = getelementptr inbounds i8, ptr %190, i64 %195
  store ptr %174, ptr %7, align 8
  store ptr %185, ptr %8, align 8
  store ptr %196, ptr %9, align 8
  %197 = load ptr, ptr %7, align 8
  %198 = getelementptr inbounds %struct._spl_ptr_heap, ptr %197, i32 0, i32 7
  %199 = load i64, ptr %198, align 8
  %200 = icmp eq i64 %199, 32
  br i1 %200, label %201, label %204

201:                                              ; preds = %173
  %202 = load ptr, ptr %8, align 8
  %203 = load ptr, ptr %9, align 8
  call void @llvm.memcpy.p0.p0.i64(ptr align 1 %202, ptr align 1 %203, i64 32, i1 false)
  br label %211

204:                                              ; preds = %173
  %205 = load ptr, ptr %7, align 8
  %206 = getelementptr inbounds %struct._spl_ptr_heap, ptr %205, i32 0, i32 7
  %207 = load i64, ptr %206, align 8
  %208 = icmp eq i64 %207, 16
  call void @llvm.assume(i1 %208)
  %209 = load ptr, ptr %8, align 8
  %210 = load ptr, ptr %9, align 8
  call void @llvm.memcpy.p0.p0.i64(ptr align 1 %209, ptr align 1 %210, i64 16, i1 false)
  br label %211

211:                                              ; preds = %204, %201
  br label %213

212:                                              ; preds = %154
  br label %216

213:                                              ; preds = %211
  br label %214

214:                                              ; preds = %213
  %215 = load i32, ptr %36, align 4
  store i32 %215, ptr %35, align 4
  br label %108

216:                                              ; preds = %212, %108
  %217 = load ptr, ptr getelementptr inbounds (%struct._zend_executor_globals, ptr @executor_globals, i32 0, i32 50), align 8
  %218 = icmp ne ptr %217, null
  br i1 %218, label %219, label %224

219:                                              ; preds = %216
  %220 = load ptr, ptr %32, align 8
  %221 = getelementptr inbounds %struct._spl_ptr_heap, ptr %220, i32 0, i32 5
  %222 = load i32, ptr %221, align 4
  %223 = or i32 %222, 1
  store i32 %223, ptr %221, align 4
  br label %224

224:                                              ; preds = %219, %216
  %225 = load ptr, ptr %32, align 8
  %226 = load i32, ptr %35, align 4
  %227 = sext i32 %226 to i64
  store ptr %225, ptr %29, align 8
  store i64 %227, ptr %30, align 8
  %228 = load ptr, ptr %29, align 8
  %229 = load ptr, ptr %228, align 8
  %230 = load ptr, ptr %29, align 8
  %231 = getelementptr inbounds %struct._spl_ptr_heap, ptr %230, i32 0, i32 7
  %232 = load i64, ptr %231, align 8
  %233 = load i64, ptr %30, align 8
  %234 = mul i64 %232, %233
  %235 = getelementptr inbounds i8, ptr %229, i64 %234
  store ptr %235, ptr %39, align 8
  %236 = load ptr, ptr %39, align 8
  %237 = load ptr, ptr %38, align 8
  %238 = icmp ne ptr %236, %237
  br i1 %238, label %239, label %258

239:                                              ; preds = %224
  %240 = load ptr, ptr %32, align 8
  %241 = load ptr, ptr %39, align 8
  %242 = load ptr, ptr %38, align 8
  store ptr %240, ptr %10, align 8
  store ptr %241, ptr %11, align 8
  store ptr %242, ptr %12, align 8
  %243 = load ptr, ptr %10, align 8
  %244 = getelementptr inbounds %struct._spl_ptr_heap, ptr %243, i32 0, i32 7
  %245 = load i64, ptr %244, align 8
  %246 = icmp eq i64 %245, 32
  br i1 %246, label %247, label %250

247:                                              ; preds = %239
  %248 = load ptr, ptr %11, align 8
  %249 = load ptr, ptr %12, align 8
  call void @llvm.memcpy.p0.p0.i64(ptr align 1 %248, ptr align 1 %249, i64 32, i1 false)
  br label %257

250:                                              ; preds = %239
  %251 = load ptr, ptr %10, align 8
  %252 = getelementptr inbounds %struct._spl_ptr_heap, ptr %251, i32 0, i32 7
  %253 = load i64, ptr %252, align 8
  %254 = icmp eq i64 %253, 16
  call void @llvm.assume(i1 %254)
  %255 = load ptr, ptr %11, align 8
  %256 = load ptr, ptr %12, align 8
  call void @llvm.memcpy.p0.p0.i64(ptr align 1 %255, ptr align 1 %256, i64 16, i1 false)
  br label %257

257:                                              ; preds = %250, %247
  br label %258

258:                                              ; preds = %257, %224
  store i32 0, ptr %31, align 4
  br label %259

259:                                              ; preds = %258, %49
  %260 = load i32, ptr %31, align 4
  ret i32 %260
}