; Function Attrs: nounwind uwtable
define internal fastcc noundef i32 @spl_ptr_heap_delete_top(ptr nocapture noundef %0, ptr noundef writeonly %1, ptr noundef %2) unnamed_addr #0 {
  %4 = getelementptr inbounds i8, ptr %0, i64 32
  %5 = load i32, ptr %4, align 8
  %6 = add nsw i32 %5, -1
  %7 = sdiv i32 %6, 2
  %8 = icmp eq i32 %5, 0
  br i1 %8, label %87, label %9

9:                                                ; preds = %3
  %.not = icmp eq ptr %1, null
  br i1 %.not, label %18, label %10

10:                                               ; preds = %9
  %11 = load ptr, ptr %0, align 8
  %12 = getelementptr inbounds i8, ptr %0, i64 48
  %13 = load i64, ptr %12, align 8
  %14 = icmp eq i64 %13, 32
  br i1 %14, label %15, label %16

15:                                               ; preds = %10
  tail call void @llvm.memcpy.p0.p0.i64(ptr noundef nonnull align 1 dereferenceable(32) %1, ptr noundef nonnull align 1 dereferenceable(32) %11, i64 32, i1 false)
  br label %22

16:                                               ; preds = %10
  %17 = icmp eq i64 %13, 16
  tail call void @llvm.assume(i1 %17)
  tail call void @llvm.memcpy.p0.p0.i64(ptr noundef nonnull align 1 dereferenceable(16) %1, ptr noundef nonnull align 1 dereferenceable(16) %11, i64 16, i1 false)
  br label %22

18:                                               ; preds = %9
  %19 = getelementptr inbounds i8, ptr %0, i64 16
  %20 = load ptr, ptr %19, align 8
  %21 = load ptr, ptr %0, align 8
  tail call void %20(ptr noundef %21) #14
  br label %22

22:                                               ; preds = %15, %16, %18
  %23 = load i32, ptr %4, align 8
  %24 = add nsw i32 %23, -1
  store i32 %24, ptr %4, align 8
  %25 = sext i32 %24 to i64
  %26 = load ptr, ptr %0, align 8
  %27 = getelementptr inbounds i8, ptr %0, i64 48
  %28 = load i64, ptr %27, align 8
  %29 = mul i64 %28, %25
  %30 = getelementptr inbounds i8, ptr %26, i64 %29
  %31 = icmp sgt i32 %5, 2
  br i1 %31, label %.lr.ph, label %._crit_edge

.lr.ph:                                           ; preds = %22
  %32 = getelementptr inbounds i8, ptr %0, i64 24
  br label %33

33:                                               ; preds = %.lr.ph, %69
  %.08698 = phi i32 [ 0, %.lr.ph ], [ %.087, %69 ]
  %34 = shl nsw i32 %.08698, 1
  %35 = or disjoint i32 %34, 1
  %36 = load i32, ptr %4, align 8
  %.not95 = icmp eq i32 %35, %36
  %.pre101 = load ptr, ptr %0, align 8
  %.pre103 = load i64, ptr %27, align 8
  br i1 %.not95, label %48, label %37

37:                                               ; preds = %33
  %38 = load ptr, ptr %32, align 8
  %39 = add i32 %34, 2
  %40 = sext i32 %39 to i64
  %41 = mul i64 %.pre103, %40
  %42 = getelementptr inbounds i8, ptr %.pre101, i64 %41
  %43 = sext i32 %35 to i64
  %44 = mul i64 %.pre103, %43
  %45 = getelementptr inbounds i8, ptr %.pre101, i64 %44
  %46 = tail call i32 %38(ptr noundef %42, ptr noundef %45, ptr noundef %2) #14
  %47 = icmp sgt i32 %46, 0
  %spec.select = select i1 %47, i32 %39, i32 %35
  %.pre = load ptr, ptr %0, align 8
  %.pre102 = load i64, ptr %27, align 8
  br label %48

48:                                               ; preds = %37, %33
  %49 = phi i64 [ %.pre103, %33 ], [ %.pre102, %37 ]
  %50 = phi ptr [ %.pre101, %33 ], [ %.pre, %37 ]
  %.087 = phi i32 [ %35, %33 ], [ %spec.select, %37 ]
  %51 = load ptr, ptr %32, align 8
  %52 = sext i32 %.087 to i64
  %53 = mul i64 %49, %52
  %54 = getelementptr inbounds i8, ptr %50, i64 %53
  %55 = tail call i32 %51(ptr noundef %30, ptr noundef %54, ptr noundef %2) #14
  %56 = icmp slt i32 %55, 0
  br i1 %56, label %57, label %._crit_edge.loopexit

57:                                               ; preds = %48
  %58 = sext i32 %.08698 to i64
  %59 = load ptr, ptr %0, align 8
  %60 = load i64, ptr %27, align 8
  %61 = mul i64 %60, %58
  %62 = getelementptr inbounds i8, ptr %59, i64 %61
  %63 = mul i64 %60, %52
  %64 = getelementptr inbounds i8, ptr %59, i64 %63
  %65 = icmp eq i64 %60, 32
  br i1 %65, label %66, label %67

66:                                               ; preds = %57
  tail call void @llvm.memcpy.p0.p0.i64(ptr noundef nonnull align 1 dereferenceable(32) %62, ptr noundef nonnull align 1 dereferenceable(32) %64, i64 32, i1 false)
  br label %69

67:                                               ; preds = %57
  %68 = icmp eq i64 %60, 16
  tail call void @llvm.assume(i1 %68)
  tail call void @llvm.memcpy.p0.p0.i64(ptr noundef nonnull align 1 dereferenceable(16) %62, ptr noundef nonnull align 1 dereferenceable(16) %64, i64 16, i1 false)
  br label %69

69:                                               ; preds = %67, %66
  %70 = icmp slt i32 %.087, %7
  br i1 %70, label %33, label %._crit_edge.loopexit

._crit_edge.loopexit:                             ; preds = %48, %69
  %.086.lcssa.ph = phi i32 [ %.087, %69 ], [ %.08698, %48 ]
  %71 = sext i32 %.086.lcssa.ph to i64
  br label %._crit_edge

._crit_edge:                                      ; preds = %._crit_edge.loopexit, %22
  %.086.lcssa = phi i64 [ 0, %22 ], [ %71, %._crit_edge.loopexit ]
  %72 = load ptr, ptr getelementptr inbounds (%struct._zend_executor_globals, ptr @executor_globals, i64 0, i32 50), align 8
  %.not96 = icmp eq ptr %72, null
  br i1 %.not96, label %77, label %73

73:                                               ; preds = %._crit_edge
  %74 = getelementptr inbounds i8, ptr %0, i64 36
  %75 = load i32, ptr %74, align 4
  %76 = or i32 %75, 1
  store i32 %76, ptr %74, align 4
  br label %77

77:                                               ; preds = %73, %._crit_edge
  %78 = load ptr, ptr %0, align 8
  %79 = load i64, ptr %27, align 8
  %80 = mul i64 %79, %.086.lcssa
  %81 = getelementptr inbounds i8, ptr %78, i64 %80
  %.not97 = icmp eq ptr %81, %30
  br i1 %.not97, label %87, label %82

82:                                               ; preds = %77
  %83 = icmp eq i64 %79, 32
  br i1 %83, label %84, label %85

84:                                               ; preds = %82
  tail call void @llvm.memcpy.p0.p0.i64(ptr noundef nonnull align 1 dereferenceable(32) %81, ptr noundef nonnull align 1 dereferenceable(32) %30, i64 32, i1 false)
  br label %87

85:                                               ; preds = %82
  %86 = icmp eq i64 %79, 16
  tail call void @llvm.assume(i1 %86)
  tail call void @llvm.memcpy.p0.p0.i64(ptr noundef nonnull align 1 dereferenceable(16) %81, ptr noundef nonnull align 1 dereferenceable(16) %30, i64 16, i1 false)
  br label %87

87:                                               ; preds = %77, %85, %84, %3
  %.0 = phi i32 [ -1, %3 ], [ 0, %84 ], [ 0, %85 ], [ 0, %77 ]
  ret i32 %.0
}